(lp0
(I10
F0.012671327590942383
tp1
a(I20
F0.061107730865478514
tp2
a(I30
F0.14306991100311278
tp3
a(I40
F0.4905179738998413
tp4
a(I50
F0.6568789720535279
tp5
a(I60
F1.6341187477111816
tp6
a(I70
F2.353016471862793
tp7
a(I80
F4.353459191322327
tp8
a(I90
F6.539382004737854
tp9
a(I100
F6.943313431739807
tp10
a(I110
F12.076588153839111
tp11
a(I120
F16.19242329597473
tp12
a(I130
F20.87784345149994
tp13
a(I140
F22.577342772483824
tp14
a(I150
F32.8860878944397
tp15
a.