(lp0
(I10
F0.0075819969177246095
tp1
a(I20
F0.03451468944549561
tp2
a(I30
F0.10004830360412598
tp3
a(I40
F0.2272883892059326
tp4
a(I50
F0.4000021696090698
tp5
a(I60
F0.6664050102233887
tp6
a(I70
F1.2226862907409668
tp7
a(I80
F1.8747214794158935
tp8
a(I90
F2.5033097743988035
tp9
a(I100
F3.5289720773696898
tp10
a(I110
F5.39603819847107
tp11
a(I120
F6.785230374336242
tp12
a(I130
F8.621442174911499
tp13
a(I140
F10.934961795806885
tp14
a(I150
F13.164424633979797
tp15
a.